
/home/oleg/scr111/scr1/build/verilator_AHB_IMC/scall.elf:     file format elf32-littleriscv


Disassembly of section .text.init:

00000000 <SIM_EXIT-0xf4>:
	...

000000f4 <SIM_EXIT>:
  f4:	00000013          	nop

000000f8 <SIM_STOP>:
  f8:	0000006f          	j	f8 <SIM_STOP>
  fc:	ffff                	0xffff
  fe:	ffff                	0xffff
	...

00000400 <trap_vector>:
 400:	f00005b7          	lui	a1,0xf0000
 404:	06500513          	li	a0,101
 408:	00a58023          	sb	a0,0(a1) # f0000000 <__global_pointer$+0xeffff1f8>
 40c:	06300513          	li	a0,99
 410:	00a58023          	sb	a0,0(a1)
 414:	06100513          	li	a0,97
 418:	00a58023          	sb	a0,0(a1)
 41c:	06c00513          	li	a0,108
 420:	00a58023          	sb	a0,0(a1)
 424:	06c00513          	li	a0,108
 428:	00a58023          	sb	a0,0(a1)
 42c:	00f70e63          	beq	a4,a5,448 <_report>
 430:	00000717          	auipc	a4,0x0
 434:	11470713          	addi	a4,a4,276 # 544 <mtvec_handler>
 438:	c311                	beqz	a4,43c <trap_vector+0x3c>
 43a:	8702                	jr	a4
 43c:	34202773          	csrr	a4,mcause
 440:	00075363          	bgez	a4,446 <handle_exception>
 444:	a009                	j	446 <handle_exception>

00000446 <handle_exception>:
 446:	4505                	li	a0,1

00000448 <_report>:
 448:	1180006f          	j	560 <sc_exit>
 44c:	00000013          	nop
 450:	00000013          	nop
 454:	00000013          	nop
 458:	00000013          	nop
 45c:	00000013          	nop
 460:	00000013          	nop
 464:	00000013          	nop
 468:	00000013          	nop
 46c:	00000013          	nop
 470:	00000013          	nop
 474:	00000013          	nop
 478:	00000013          	nop
 47c:	00000013          	nop

00000480 <_start>:
 480:	f1402573          	csrr	a0,mhartid
 484:	e101                	bnez	a0,484 <_start+0x4>
 486:	4e01                	li	t3,0
 488:	00000297          	auipc	t0,0x0
 48c:	f7828293          	addi	t0,t0,-136 # 400 <trap_vector>
 490:	30529073          	csrw	mtvec,t0
 494:	4505                	li	a0,1
 496:	057e                	slli	a0,a0,0x1f
 498:	00054863          	bltz	a0,4a8 <_start+0x28>
 49c:	0ff0000f          	fence
 4a0:	85f2                	mv	a1,t3
 4a2:	4501                	li	a0,0
 4a4:	00000073          	ecall
 4a8:	00000297          	auipc	t0,0x0
 4ac:	b5828293          	addi	t0,t0,-1192 # 0 <CL_SIZE-0x20>
 4b0:	00028e63          	beqz	t0,4cc <_start+0x4c>
 4b4:	10529073          	csrw	stvec,t0
 4b8:	0000b2b7          	lui	t0,0xb
 4bc:	10928293          	addi	t0,t0,265 # b109 <__global_pointer$+0xa301>
 4c0:	30229073          	csrw	medeleg,t0
 4c4:	30202373          	csrr	t1,medeleg
 4c8:	f6629fe3          	bne	t0,t1,446 <handle_exception>
 4cc:	30005073          	csrwi	mstatus,0
 4d0:	00002537          	lui	a0,0x2
 4d4:	80050513          	addi	a0,a0,-2048 # 1800 <__global_pointer$+0x9f8>
 4d8:	30052073          	csrs	mstatus,a0
 4dc:	00000297          	auipc	t0,0x0
 4e0:	02428293          	addi	t0,t0,36 # 500 <_run_test>
 4e4:	34129073          	csrw	mepc,t0
 4e8:	f1402573          	csrr	a0,mhartid
 4ec:	30200073          	mret
	...

Disassembly of section .text:

00000500 <_run_test>:
 500:	4e09                	li	t3,2
 502:	000022b7          	lui	t0,0x2
 506:	80028293          	addi	t0,t0,-2048 # 1800 <__global_pointer$+0x9f8>
 50a:	3002b073          	csrc	mstatus,t0
 50e:	00000297          	auipc	t0,0x0
 512:	01028293          	addi	t0,t0,16 # 51e <_run_test+0x1e>
 516:	34129073          	csrw	mepc,t0
 51a:	30200073          	mret
 51e:	4e05                	li	t3,1
 520:	00000073          	ecall
 524:	a019                	j	52a <fail>
 526:	01c01863          	bne	zero,t3,536 <pass>

0000052a <fail>:
 52a:	0ff0000f          	fence
 52e:	85f2                	mv	a1,t3
 530:	4505                	li	a0,1
 532:	00000073          	ecall

00000536 <pass>:
 536:	0ff0000f          	fence
 53a:	85f2                	mv	a1,t3
 53c:	4501                	li	a0,0
 53e:	00000073          	ecall
 542:	0001                	nop

00000544 <mtvec_handler>:
 544:	4321                	li	t1,8
 546:	342022f3          	csrr	t0,mcause
 54a:	fe6290e3          	bne	t0,t1,52a <fail>
 54e:	b7e5                	j	536 <pass>

00000550 <ecall>:
 550:	00000073          	ecall
	...

00000560 <sc_exit>:
 560:	b95ff06f          	j	f4 <SIM_EXIT>
 564:	00000013          	nop
 568:	00000013          	nop
 56c:	00000013          	nop
 570:	00000013          	nop
 574:	00000013          	nop
 578:	00000013          	nop
 57c:	00000013          	nop
	...

Disassembly of section .data:

000005a0 <begin_regstate>:
	...

Disassembly of section .tohost:

000005c0 <tohost>:
	...

00000600 <fromhost>:
	...

Disassembly of section .sdata:

00000608 <__global_pointer$-0x800>:
	...

Disassembly of section .stack:

0000fc00 <.stack>:
	...
